target datalayout = "e-m:e-p270:32:32-p271:32:32-p272:64:64-i64:64-i128:128-f80:128-n8:16:32:64-S128"
target triple = "x86_64-pc-linux-gnu"

%struct.FFOutputFormat = type { %struct.AVOutputFormat, i32, i32, ptr, ptr, ptr, ptr, ptr, ptr, ptr, ptr, ptr, ptr, ptr, ptr }
%struct.AVOutputFormat = type { ptr, ptr, ptr, ptr, i32, i32, i32, i32, ptr, ptr }
%struct.AVFormatContext = type { ptr, ptr, ptr, ptr, ptr, i32, i32, ptr, i32, ptr, i32, ptr, ptr, i64, i64, i64, i32, i32, i32, i64, i64, ptr, i32, i32, ptr, i32, i32, i32, i32, ptr, i64, i32, i32, %struct.AVIOInterruptCB, i32, i32, i32, i32, i64, i32, i32, i32, i32, i32, i32, i32, i32, i32, i32, i32, i32, i64, i32, i32, i32, i32, i32, ptr, ptr, ptr, ptr, i32, ptr, ptr, ptr, ptr, i32, ptr, ptr, i64, ptr, ptr, ptr, i64 }
%struct.AVIOInterruptCB = type { ptr, ptr }
%struct.AVStream = type { ptr, i32, i32, ptr, ptr, %struct.AVRational, i64, i64, i64, i32, i32, %struct.AVRational, ptr, %struct.AVRational, %struct.AVPacket, i32, %struct.AVRational, i32 }
%struct.AVPacket = type { ptr, i64, i64, ptr, i32, i32, i32, ptr, i32, i64, i64, ptr, ptr, %struct.AVRational }
%struct.AVRational = type { i32, i32 }
%struct.AVCodecParameters = type { i32, i32, i32, ptr, i32, ptr, i32, i32, i64, i32, i32, i32, i32, i32, i32, %struct.AVRational, %struct.AVRational, i32, i32, i32, i32, i32, i32, i32, %struct.AVChannelLayout, i32, i32, i32, i32, i32, i32 }
%struct.AVChannelLayout = type { i32, i32, %union.anon, ptr }
%union.anon = type { i64 }
%struct.RCVContext = type { i32 }
%struct.AVIOContext = type { ptr, ptr, i32, ptr, ptr, ptr, ptr, ptr, ptr, i64, i32, i32, i32, i32, i32, i64, ptr, ptr, ptr, ptr, i32, i32, ptr, ptr, ptr, i32, ptr, i64, i64 }

@.str = private unnamed_addr constant [8 x i8] c"vc1test\00", align 1
@.str.1 = private unnamed_addr constant [20 x i8] c"VC-1 test bitstream\00", align 1
@.str.2 = private unnamed_addr constant [4 x i8] c"rcv\00", align 1
@ff_vc1t_muxer = constant %struct.FFOutputFormat { %struct.AVOutputFormat { ptr @.str, ptr @.str.1, ptr null, ptr @.str.2, i32 0, i32 71, i32 0, i32 0, ptr null, ptr null }, i32 4, i32 12, ptr @vc1test_write_header, ptr @vc1test_write_packet, ptr @vc1test_write_trailer, ptr null, ptr null, ptr null, ptr null, ptr null, ptr null, ptr null, ptr null, ptr null }, align 8

; Function Attrs: nounwind uwtable
define internal i32 @vc1test_write_header(ptr noundef %0) #0 {
  %2 = alloca ptr, align 8
  %3 = alloca ptr, align 8
  %4 = alloca ptr, align 8
  store ptr %0, ptr %2, align 8, !tbaa !4
  call void @llvm.lifetime.start.p0(i64 8, ptr %3) #3
  %5 = load ptr, ptr %2, align 8, !tbaa !4
  %6 = getelementptr inbounds nuw %struct.AVFormatContext, ptr %5, i32 0, i32 7
  %7 = load ptr, ptr %6, align 8, !tbaa !9
  %8 = getelementptr inbounds ptr, ptr %7, i64 0
  %9 = load ptr, ptr %8, align 8, !tbaa !26
  %10 = getelementptr inbounds nuw %struct.AVStream, ptr %9, i32 0, i32 3
  %11 = load ptr, ptr %10, align 8, !tbaa !28
  store ptr %11, ptr %3, align 8, !tbaa !35
  call void @llvm.lifetime.start.p0(i64 8, ptr %4) #3
  %12 = load ptr, ptr %2, align 8, !tbaa !4
  %13 = getelementptr inbounds nuw %struct.AVFormatContext, ptr %12, i32 0, i32 4
  %14 = load ptr, ptr %13, align 8, !tbaa !36
  store ptr %14, ptr %4, align 8, !tbaa !37
  %15 = load ptr, ptr %4, align 8, !tbaa !37
  call void @avio_wl24(ptr noundef %15, i32 noundef 0)
  %16 = load ptr, ptr %4, align 8, !tbaa !37
  call void @avio_w8(ptr noundef %16, i32 noundef 197)
  %17 = load ptr, ptr %4, align 8, !tbaa !37
  call void @avio_wl32(ptr noundef %17, i32 noundef 4)
  %18 = load ptr, ptr %4, align 8, !tbaa !37
  %19 = load ptr, ptr %3, align 8, !tbaa !35
  %20 = getelementptr inbounds nuw %struct.AVCodecParameters, ptr %19, i32 0, i32 3
  %21 = load ptr, ptr %20, align 8, !tbaa !38
  call void @avio_write(ptr noundef %18, ptr noundef %21, i32 noundef 4)
  %22 = load ptr, ptr %4, align 8, !tbaa !37
  %23 = load ptr, ptr %3, align 8, !tbaa !35
  %24 = getelementptr inbounds nuw %struct.AVCodecParameters, ptr %23, i32 0, i32 14
  %25 = load i32, ptr %24, align 4, !tbaa !41
  call void @avio_wl32(ptr noundef %22, i32 noundef %25)
  %26 = load ptr, ptr %4, align 8, !tbaa !37
  %27 = load ptr, ptr %3, align 8, !tbaa !35
  %28 = getelementptr inbounds nuw %struct.AVCodecParameters, ptr %27, i32 0, i32 13
  %29 = load i32, ptr %28, align 8, !tbaa !42
  call void @avio_wl32(ptr noundef %26, i32 noundef %29)
  %30 = load ptr, ptr %4, align 8, !tbaa !37
  call void @avio_wl32(ptr noundef %30, i32 noundef 12)
  %31 = load ptr, ptr %4, align 8, !tbaa !37
  call void @avio_wl24(ptr noundef %31, i32 noundef 0)
  %32 = load ptr, ptr %4, align 8, !tbaa !37
  call void @avio_w8(ptr noundef %32, i32 noundef 128)
  %33 = load ptr, ptr %4, align 8, !tbaa !37
  call void @avio_wl32(ptr noundef %33, i32 noundef 0)
  %34 = load ptr, ptr %2, align 8, !tbaa !4
  %35 = getelementptr inbounds nuw %struct.AVFormatContext, ptr %34, i32 0, i32 7
  %36 = load ptr, ptr %35, align 8, !tbaa !9
  %37 = getelementptr inbounds ptr, ptr %36, i64 0
  %38 = load ptr, ptr %37, align 8, !tbaa !26
  %39 = getelementptr inbounds nuw %struct.AVStream, ptr %38, i32 0, i32 13
  %40 = getelementptr inbounds nuw %struct.AVRational, ptr %39, i32 0, i32 1
  %41 = load i32, ptr %40, align 4, !tbaa !43
  %42 = icmp ne i32 %41, 0
  br i1 %42, label %43, label %63

43:                                               ; preds = %1
  %44 = load ptr, ptr %2, align 8, !tbaa !4
  %45 = getelementptr inbounds nuw %struct.AVFormatContext, ptr %44, i32 0, i32 7
  %46 = load ptr, ptr %45, align 8, !tbaa !9
  %47 = getelementptr inbounds ptr, ptr %46, i64 0
  %48 = load ptr, ptr %47, align 8, !tbaa !26
  %49 = getelementptr inbounds nuw %struct.AVStream, ptr %48, i32 0, i32 13
  %50 = getelementptr inbounds nuw %struct.AVRational, ptr %49, i32 0, i32 0
  %51 = load i32, ptr %50, align 8, !tbaa !44
  %52 = icmp eq i32 %51, 1
  br i1 %52, label %53, label %63

53:                                               ; preds = %43
  %54 = load ptr, ptr %4, align 8, !tbaa !37
  %55 = load ptr, ptr %2, align 8, !tbaa !4
  %56 = getelementptr inbounds nuw %struct.AVFormatContext, ptr %55, i32 0, i32 7
  %57 = load ptr, ptr %56, align 8, !tbaa !9
  %58 = getelementptr inbounds ptr, ptr %57, i64 0
  %59 = load ptr, ptr %58, align 8, !tbaa !26
  %60 = getelementptr inbounds nuw %struct.AVStream, ptr %59, i32 0, i32 13
  %61 = getelementptr inbounds nuw %struct.AVRational, ptr %60, i32 0, i32 1
  %62 = load i32, ptr %61, align 4, !tbaa !43
  call void @avio_wl32(ptr noundef %54, i32 noundef %62)
  br label %65

63:                                               ; preds = %43, %1
  %64 = load ptr, ptr %4, align 8, !tbaa !37
  call void @avio_wl32(ptr noundef %64, i32 noundef -1)
  br label %65

65:                                               ; preds = %63, %53
  %66 = load ptr, ptr %2, align 8, !tbaa !4
  %67 = getelementptr inbounds nuw %struct.AVFormatContext, ptr %66, i32 0, i32 7
  %68 = load ptr, ptr %67, align 8, !tbaa !9
  %69 = getelementptr inbounds ptr, ptr %68, i64 0
  %70 = load ptr, ptr %69, align 8, !tbaa !26
  call void @avpriv_set_pts_info(ptr noundef %70, i32 noundef 32, i32 noundef 1, i32 noundef 1000)
  call void @llvm.lifetime.end.p0(i64 8, ptr %4) #3
  call void @llvm.lifetime.end.p0(i64 8, ptr %3) #3
  ret i32 0
}

; Function Attrs: nounwind uwtable
define internal i32 @vc1test_write_packet(ptr noundef %0, ptr noundef %1) #0 {
  %3 = alloca i32, align 4
  %4 = alloca ptr, align 8
  %5 = alloca ptr, align 8
  %6 = alloca ptr, align 8
  %7 = alloca ptr, align 8
  %8 = alloca i32, align 4
  store ptr %0, ptr %4, align 8, !tbaa !4
  store ptr %1, ptr %5, align 8, !tbaa !45
  call void @llvm.lifetime.start.p0(i64 8, ptr %6) #3
  %9 = load ptr, ptr %4, align 8, !tbaa !4
  %10 = getelementptr inbounds nuw %struct.AVFormatContext, ptr %9, i32 0, i32 3
  %11 = load ptr, ptr %10, align 8, !tbaa !47
  store ptr %11, ptr %6, align 8, !tbaa !48
  call void @llvm.lifetime.start.p0(i64 8, ptr %7) #3
  %12 = load ptr, ptr %4, align 8, !tbaa !4
  %13 = getelementptr inbounds nuw %struct.AVFormatContext, ptr %12, i32 0, i32 4
  %14 = load ptr, ptr %13, align 8, !tbaa !36
  store ptr %14, ptr %7, align 8, !tbaa !37
  %15 = load ptr, ptr %5, align 8, !tbaa !45
  %16 = getelementptr inbounds nuw %struct.AVPacket, ptr %15, i32 0, i32 4
  %17 = load i32, ptr %16, align 8, !tbaa !50
  %18 = icmp ne i32 %17, 0
  br i1 %18, label %20, label %19

19:                                               ; preds = %2
  store i32 0, ptr %3, align 4
  store i32 1, ptr %8, align 4
  br label %48

20:                                               ; preds = %2
  %21 = load ptr, ptr %7, align 8, !tbaa !37
  %22 = load ptr, ptr %5, align 8, !tbaa !45
  %23 = getelementptr inbounds nuw %struct.AVPacket, ptr %22, i32 0, i32 4
  %24 = load i32, ptr %23, align 8, !tbaa !50
  %25 = load ptr, ptr %5, align 8, !tbaa !45
  %26 = getelementptr inbounds nuw %struct.AVPacket, ptr %25, i32 0, i32 6
  %27 = load i32, ptr %26, align 8, !tbaa !51
  %28 = and i32 %27, 1
  %29 = icmp ne i32 %28, 0
  %30 = select i1 %29, i32 -2147483648, i32 0
  %31 = or i32 %24, %30
  call void @avio_wl32(ptr noundef %21, i32 noundef %31)
  %32 = load ptr, ptr %7, align 8, !tbaa !37
  %33 = load ptr, ptr %5, align 8, !tbaa !45
  %34 = getelementptr inbounds nuw %struct.AVPacket, ptr %33, i32 0, i32 1
  %35 = load i64, ptr %34, align 8, !tbaa !52
  %36 = trunc i64 %35 to i32
  call void @avio_wl32(ptr noundef %32, i32 noundef %36)
  %37 = load ptr, ptr %7, align 8, !tbaa !37
  %38 = load ptr, ptr %5, align 8, !tbaa !45
  %39 = getelementptr inbounds nuw %struct.AVPacket, ptr %38, i32 0, i32 3
  %40 = load ptr, ptr %39, align 8, !tbaa !53
  %41 = load ptr, ptr %5, align 8, !tbaa !45
  %42 = getelementptr inbounds nuw %struct.AVPacket, ptr %41, i32 0, i32 4
  %43 = load i32, ptr %42, align 8, !tbaa !50
  call void @avio_write(ptr noundef %37, ptr noundef %40, i32 noundef %43)
  %44 = load ptr, ptr %6, align 8, !tbaa !48
  %45 = getelementptr inbounds nuw %struct.RCVContext, ptr %44, i32 0, i32 0
  %46 = load i32, ptr %45, align 4, !tbaa !54
  %47 = add nsw i32 %46, 1
  store i32 %47, ptr %45, align 4, !tbaa !54
  store i32 0, ptr %3, align 4
  store i32 1, ptr %8, align 4
  br label %48

48:                                               ; preds = %20, %19
  call void @llvm.lifetime.end.p0(i64 8, ptr %7) #3
  call void @llvm.lifetime.end.p0(i64 8, ptr %6) #3
  %49 = load i32, ptr %3, align 4
  ret i32 %49
}

; Function Attrs: nounwind uwtable
define internal i32 @vc1test_write_trailer(ptr noundef %0) #0 {
  %2 = alloca ptr, align 8
  %3 = alloca ptr, align 8
  %4 = alloca ptr, align 8
  store ptr %0, ptr %2, align 8, !tbaa !4
  call void @llvm.lifetime.start.p0(i64 8, ptr %3) #3
  %5 = load ptr, ptr %2, align 8, !tbaa !4
  %6 = getelementptr inbounds nuw %struct.AVFormatContext, ptr %5, i32 0, i32 3
  %7 = load ptr, ptr %6, align 8, !tbaa !47
  store ptr %7, ptr %3, align 8, !tbaa !48
  call void @llvm.lifetime.start.p0(i64 8, ptr %4) #3
  %8 = load ptr, ptr %2, align 8, !tbaa !4
  %9 = getelementptr inbounds nuw %struct.AVFormatContext, ptr %8, i32 0, i32 4
  %10 = load ptr, ptr %9, align 8, !tbaa !36
  store ptr %10, ptr %4, align 8, !tbaa !37
  %11 = load ptr, ptr %2, align 8, !tbaa !4
  %12 = getelementptr inbounds nuw %struct.AVFormatContext, ptr %11, i32 0, i32 4
  %13 = load ptr, ptr %12, align 8, !tbaa !36
  %14 = getelementptr inbounds nuw %struct.AVIOContext, ptr %13, i32 0, i32 20
  %15 = load i32, ptr %14, align 8, !tbaa !56
  %16 = and i32 %15, 1
  %17 = icmp ne i32 %16, 0
  br i1 %17, label %18, label %25

18:                                               ; preds = %1
  %19 = load ptr, ptr %4, align 8, !tbaa !37
  %20 = call i64 @avio_seek(ptr noundef %19, i64 noundef 0, i32 noundef 0)
  %21 = load ptr, ptr %4, align 8, !tbaa !37
  %22 = load ptr, ptr %3, align 8, !tbaa !48
  %23 = getelementptr inbounds nuw %struct.RCVContext, ptr %22, i32 0, i32 0
  %24 = load i32, ptr %23, align 4, !tbaa !54
  call void @avio_wl24(ptr noundef %21, i32 noundef %24)
  br label %25

25:                                               ; preds = %18, %1
  call void @llvm.lifetime.end.p0(i64 8, ptr %4) #3
  call void @llvm.lifetime.end.p0(i64 8, ptr %3) #3
  ret i32 0
}

; Function Attrs: nocallback nofree nosync nounwind willreturn memory(argmem: readwrite)
declare void @llvm.lifetime.start.p0(i64 immarg, ptr captures(none)) #1

declare void @avio_wl24(ptr noundef, i32 noundef) #2

declare void @avio_w8(ptr noundef, i32 noundef) #2

declare void @avio_wl32(ptr noundef, i32 noundef) #2

declare void @avio_write(ptr noundef, ptr noundef, i32 noundef) #2

declare void @avpriv_set_pts_info(ptr noundef, i32 noundef, i32 noundef, i32 noundef) #2

; Function Attrs: nocallback nofree nosync nounwind willreturn memory(argmem: readwrite)
declare void @llvm.lifetime.end.p0(i64 immarg, ptr captures(none)) #1

declare i64 @avio_seek(ptr noundef, i64 noundef, i32 noundef) #2


!llvm.module.flags = !{!0, !1, !2, !3}

!0 = !{i32 1, !"wchar_size", i32 4}
!1 = !{i32 8, !"PIC Level", i32 2}
!2 = !{i32 7, !"uwtable", i32 2}
!3 = !{i32 1, !"override-stack-alignment", i32 16}
!4 = !{!5, !5, i64 0}
!5 = !{!"p1 _ZTS15AVFormatContext", !6, i64 0}
!6 = !{!"any pointer", !7, i64 0}
!7 = !{!"omnipotent char", !8, i64 0}
!8 = !{!"Simple C/C++ TBAA"}
!9 = !{!10, !16, i64 48}
!10 = !{!"AVFormatContext", !11, i64 0, !12, i64 8, !13, i64 16, !6, i64 24, !14, i64 32, !15, i64 40, !15, i64 44, !16, i64 48, !15, i64 56, !18, i64 64, !15, i64 72, !19, i64 80, !20, i64 88, !21, i64 96, !21, i64 104, !21, i64 112, !15, i64 120, !15, i64 124, !15, i64 128, !21, i64 136, !21, i64 144, !20, i64 152, !15, i64 160, !15, i64 164, !22, i64 168, !15, i64 176, !15, i64 180, !15, i64 184, !15, i64 188, !23, i64 192, !21, i64 200, !15, i64 208, !15, i64 212, !24, i64 216, !15, i64 232, !15, i64 236, !15, i64 240, !15, i64 244, !21, i64 248, !15, i64 256, !15, i64 260, !15, i64 264, !15, i64 268, !15, i64 272, !15, i64 276, !15, i64 280, !15, i64 284, !15, i64 288, !15, i64 292, !15, i64 296, !15, i64 300, !21, i64 304, !15, i64 312, !15, i64 316, !15, i64 320, !15, i64 324, !15, i64 328, !20, i64 336, !20, i64 344, !20, i64 352, !20, i64 360, !15, i64 368, !25, i64 376, !25, i64 384, !25, i64 392, !25, i64 400, !15, i64 408, !6, i64 416, !6, i64 424, !21, i64 432, !20, i64 440, !6, i64 448, !6, i64 456, !21, i64 464}
!11 = !{!"p1 _ZTS7AVClass", !6, i64 0}
!12 = !{!"p1 _ZTS13AVInputFormat", !6, i64 0}
!13 = !{!"p1 _ZTS14AVOutputFormat", !6, i64 0}
!14 = !{!"p1 _ZTS11AVIOContext", !6, i64 0}
!15 = !{!"int", !7, i64 0}
!16 = !{!"p2 _ZTS8AVStream", !17, i64 0}
!17 = !{!"any p2 pointer", !6, i64 0}
!18 = !{!"p2 _ZTS13AVStreamGroup", !17, i64 0}
!19 = !{!"p2 _ZTS9AVChapter", !17, i64 0}
!20 = !{!"p1 omnipotent char", !6, i64 0}
!21 = !{!"long", !7, i64 0}
!22 = !{!"p2 _ZTS9AVProgram", !17, i64 0}
!23 = !{!"p1 _ZTS12AVDictionary", !6, i64 0}
!24 = !{!"AVIOInterruptCB", !6, i64 0, !6, i64 8}
!25 = !{!"p1 _ZTS7AVCodec", !6, i64 0}
!26 = !{!27, !27, i64 0}
!27 = !{!"p1 _ZTS8AVStream", !6, i64 0}
!28 = !{!29, !30, i64 16}
!29 = !{!"AVStream", !11, i64 0, !15, i64 8, !15, i64 12, !30, i64 16, !6, i64 24, !31, i64 32, !21, i64 40, !21, i64 48, !21, i64 56, !15, i64 64, !15, i64 68, !31, i64 72, !23, i64 80, !31, i64 88, !32, i64 96, !15, i64 200, !31, i64 204, !15, i64 212}
!30 = !{!"p1 _ZTS17AVCodecParameters", !6, i64 0}
!31 = !{!"AVRational", !15, i64 0, !15, i64 4}
!32 = !{!"AVPacket", !33, i64 0, !21, i64 8, !21, i64 16, !20, i64 24, !15, i64 32, !15, i64 36, !15, i64 40, !34, i64 48, !15, i64 56, !21, i64 64, !21, i64 72, !6, i64 80, !33, i64 88, !31, i64 96}
!33 = !{!"p1 _ZTS11AVBufferRef", !6, i64 0}
!34 = !{!"p1 _ZTS16AVPacketSideData", !6, i64 0}
!35 = !{!30, !30, i64 0}
!36 = !{!10, !14, i64 32}
!37 = !{!14, !14, i64 0}
!38 = !{!39, !20, i64 16}
!39 = !{!"AVCodecParameters", !15, i64 0, !15, i64 4, !15, i64 8, !20, i64 16, !15, i64 24, !34, i64 32, !15, i64 40, !15, i64 44, !21, i64 48, !15, i64 56, !15, i64 60, !15, i64 64, !15, i64 68, !15, i64 72, !15, i64 76, !31, i64 80, !31, i64 88, !15, i64 96, !15, i64 100, !15, i64 104, !15, i64 108, !15, i64 112, !15, i64 116, !15, i64 120, !40, i64 128, !15, i64 152, !15, i64 156, !15, i64 160, !15, i64 164, !15, i64 168, !15, i64 172}
!40 = !{!"AVChannelLayout", !15, i64 0, !15, i64 4, !7, i64 8, !6, i64 16}
!41 = !{!39, !15, i64 76}
!42 = !{!39, !15, i64 72}
!43 = !{!29, !15, i64 92}
!44 = !{!29, !15, i64 88}
!45 = !{!46, !46, i64 0}
!46 = !{!"p1 _ZTS8AVPacket", !6, i64 0}
!47 = !{!10, !6, i64 24}
!48 = !{!49, !49, i64 0}
!49 = !{!"p1 _ZTS10RCVContext", !6, i64 0}
!50 = !{!32, !15, i64 32}
!51 = !{!32, !15, i64 40}
!52 = !{!32, !21, i64 8}
!53 = !{!32, !20, i64 24}
!54 = !{!55, !15, i64 0}
!55 = !{!"RCVContext", !15, i64 0}
!56 = !{!57, !15, i64 144}
!57 = !{!"AVIOContext", !11, i64 0, !20, i64 8, !15, i64 16, !20, i64 24, !20, i64 32, !6, i64 40, !6, i64 48, !6, i64 56, !6, i64 64, !21, i64 72, !15, i64 80, !15, i64 84, !15, i64 88, !15, i64 92, !15, i64 96, !21, i64 104, !20, i64 112, !6, i64 120, !6, i64 128, !6, i64 136, !15, i64 144, !15, i64 148, !20, i64 152, !20, i64 160, !6, i64 168, !15, i64 176, !20, i64 184, !21, i64 192, !21, i64 200}
